target datalayout = "e-m:e-p270:32:32-p271:32:32-p272:64:64-i64:64-i128:128-f80:128-n8:16:32:64-S128"
target triple = "x86_64-pc-linux-gnu"

%struct.b2Vec2 = type { float, float }
%struct.b2JointSim = type { i32, i32, i32, i32, %struct.b2Vec2, %struct.b2Vec2, float, float, float, float, %union.anon }
%union.anon = type { %struct.b2PrismaticJoint }
%struct.b2PrismaticJoint = type { %struct.b2Vec2, %struct.b2Vec2, float, float, float, float, float, float, float, float, float, float, float, i32, i32, %struct.b2Vec2, %struct.b2Vec2, %struct.b2Vec2, %struct.b2Vec2, float, float, %struct.b2Softness, i8, i8, i8 }
%struct.b2Softness = type { float, float, float }
%struct.b2MotorJoint = type { %struct.b2Vec2, float, %struct.b2Vec2, float, float, float, float, i32, i32, %struct.b2Vec2, %struct.b2Vec2, %struct.b2Vec2, float, %struct.b2Mat22, float }
%struct.b2Mat22 = type { %struct.b2Vec2, %struct.b2Vec2 }
%struct.b2World = type { %struct.b2ArenaAllocator, %struct.b2BroadPhase, %struct.b2ConstraintGraph, %struct.b2IdPool, %struct.b2BodyArray, %struct.b2IdPool, %struct.b2SolverSetArray, %struct.b2IdPool, %struct.b2JointArray, %struct.b2IdPool, %struct.b2ContactArray, %struct.b2IdPool, %struct.b2IslandArray, %struct.b2IdPool, %struct.b2IdPool, %struct.b2ShapeArray, %struct.b2ChainShapeArray, %struct.b2SensorArray, %struct.b2TaskContextArray, %struct.b2SensorTaskContextArray, %struct.b2BodyMoveEventArray, %struct.b2SensorBeginTouchEventArray, %struct.b2ContactBeginTouchEventArray, [2 x %struct.b2SensorEndTouchEventArray], [2 x %struct.b2ContactEndTouchEventArray], i32, %struct.b2ContactHitEventArray, %struct.b2BitSet, %struct.b2BitSet, %struct.b2BitSet, i64, i32, %struct.b2Vec2, float, float, float, float, float, float, float, float, ptr, ptr, i16, %struct.b2Profile, ptr, ptr, ptr, ptr, i32, ptr, ptr, ptr, ptr, ptr, float, i32, i32, i16, i8, i8, i8, i8, i8, i8 }
%struct.b2ArenaAllocator = type { ptr, i32, i32, i32, i32, %struct.b2ArenaEntryArray }
%struct.b2ArenaEntryArray = type { ptr, i32, i32 }
%struct.b2BroadPhase = type { [3 x %struct.b2DynamicTree], i32, %struct.b2HashSet, %struct.b2IntArray, ptr, ptr, i32, %struct.b2AtomicInt, %struct.b2HashSet }
%struct.b2DynamicTree = type { ptr, i32, i32, i32, i32, i32, ptr, ptr, ptr, ptr, i32 }
%struct.b2IntArray = type { ptr, i32, i32 }
%struct.b2AtomicInt = type { i32 }
%struct.b2HashSet = type { ptr, i32, i32 }
%struct.b2ConstraintGraph = type { [12 x %struct.b2GraphColor] }
%struct.b2GraphColor = type { %struct.b2BitSet, %struct.b2ContactSimArray, %struct.b2JointSimArray, %union.anon.0 }
%struct.b2ContactSimArray = type { ptr, i32, i32 }
%struct.b2JointSimArray = type { ptr, i32, i32 }
%union.anon.0 = type { ptr }
%struct.b2BodyArray = type { ptr, i32, i32 }
%struct.b2SolverSetArray = type { ptr, i32, i32 }
%struct.b2JointArray = type { ptr, i32, i32 }
%struct.b2ContactArray = type { ptr, i32, i32 }
%struct.b2IslandArray = type { ptr, i32, i32 }
%struct.b2IdPool = type { %struct.b2IntArray, i32 }
%struct.b2ShapeArray = type { ptr, i32, i32 }
%struct.b2ChainShapeArray = type { ptr, i32, i32 }
%struct.b2SensorArray = type { ptr, i32, i32 }
%struct.b2TaskContextArray = type { ptr, i32, i32 }
%struct.b2SensorTaskContextArray = type { ptr, i32, i32 }
%struct.b2BodyMoveEventArray = type { ptr, i32, i32 }
%struct.b2SensorBeginTouchEventArray = type { ptr, i32, i32 }
%struct.b2ContactBeginTouchEventArray = type { ptr, i32, i32 }
%struct.b2SensorEndTouchEventArray = type { ptr, i32, i32 }
%struct.b2ContactEndTouchEventArray = type { ptr, i32, i32 }
%struct.b2ContactHitEventArray = type { ptr, i32, i32 }
%struct.b2BitSet = type { ptr, i32, i32 }
%struct.b2Profile = type { float, float, float, float, float, float, float, float, float, float, float, float, float, float, float, float, float, float, float, float, float, float }

; Function Attrs: inlinehint nounwind uwtable
define internal <2 x float> @b2MulSV(float noundef %0, <2 x float> %1) #6 {
  %3 = alloca %struct.b2Vec2, align 4
  %4 = alloca %struct.b2Vec2, align 4
  %5 = alloca float, align 4
  store <2 x float> %1, ptr %4, align 4
  store float %0, ptr %5, align 4, !tbaa !9
  %6 = getelementptr inbounds nuw %struct.b2Vec2, ptr %3, i32 0, i32 0
  %7 = load float, ptr %5, align 4, !tbaa !9
  %8 = getelementptr inbounds nuw %struct.b2Vec2, ptr %4, i32 0, i32 0
  %9 = load float, ptr %8, align 4, !tbaa !66
  %10 = fmul float %7, %9
  store float %10, ptr %6, align 4, !tbaa !66
  %11 = getelementptr inbounds nuw %struct.b2Vec2, ptr %3, i32 0, i32 1
  %12 = load float, ptr %5, align 4, !tbaa !9
  %13 = getelementptr inbounds nuw %struct.b2Vec2, ptr %4, i32 0, i32 1
  %14 = load float, ptr %13, align 4, !tbaa !67
  %15 = fmul float %12, %14
  store float %15, ptr %11, align 4, !tbaa !67
  %16 = load <2 x float>, ptr %3, align 4
  ret <2 x float> %16
}

; Function Attrs: nounwind uwtable
define hidden <2 x float> @b2GetMotorJointForce(ptr noundef %0, ptr noundef %1) #0 {
  %3 = alloca %struct.b2Vec2, align 4
  %4 = alloca ptr, align 8
  %5 = alloca ptr, align 8
  store ptr %0, ptr %4, align 8, !tbaa !12
  store ptr %1, ptr %5, align 8, !tbaa !3
  %6 = load ptr, ptr %4, align 8, !tbaa !12
  %7 = getelementptr inbounds nuw %struct.b2World, ptr %6, i32 0, i32 55
  %8 = load float, ptr %7, align 8, !tbaa !14
  %9 = load ptr, ptr %5, align 8, !tbaa !3
  %10 = getelementptr inbounds nuw %struct.b2JointSim, ptr %9, i32 0, i32 10
  %11 = getelementptr inbounds nuw %struct.b2MotorJoint, ptr %10, i32 0, i32 2
  %12 = load <2 x float>, ptr %11, align 4
  %13 = call <2 x float> @b2MulSV(float noundef %8, <2 x float> %12)
  store <2 x float> %13, ptr %3, align 4
  %14 = load <2 x float>, ptr %3, align 4
  ret <2 x float> %14
}